; ModuleID = '64/2575.c'
source_filename = "64/2575.c"
target datalayout = "e-m:e-p270:32:32-p271:32:32-p272:64:64-i64:64-f80:128-n8:16:32:64-S128"
target triple = "x86_64-pc-linux-gnu"

%struct.dian = type { float, i32, i32 }

@.str = private unnamed_addr constant [3 x i8] c"%d\00", align 1
@.str.1 = private unnamed_addr constant [7 x i8] c"%d%d%d\00", align 1
@.str.2 = private unnamed_addr constant [28 x i8] c"(%d,%d,%d)-(%d,%d,%d)=%.2f\0A\00", align 1

; Function Attrs: noinline nounwind uwtable
define dso_local i32 @main() #0 {
  %1 = alloca i32, align 4
  %2 = alloca i32, align 4
  %3 = alloca [45 x %struct.dian], align 16
  %4 = alloca %struct.dian, align 4
  %5 = alloca [10 x [3 x i32]], align 16
  %6 = alloca i32, align 4
  %7 = alloca i32, align 4
  %8 = alloca i32, align 4
  store i32 0, i32* %1, align 4
  store i32 0, i32* %8, align 4
  %9 = call i32 (i8*, ...) @__isoc99_scanf(i8* getelementptr inbounds ([3 x i8], [3 x i8]* @.str, i64 0, i64 0), i32* %2)
  store i32 0, i32* %6, align 4
  br label %10

10:                                               ; preds = %28, %0
  %11 = load i32, i32* %6, align 4
  %12 = load i32, i32* %2, align 4
  %13 = icmp slt i32 %11, %12
  br i1 %13, label %14, label %31

14:                                               ; preds = %10
  %15 = load i32, i32* %6, align 4
  %16 = sext i32 %15 to i64
  %17 = getelementptr inbounds [10 x [3 x i32]], [10 x [3 x i32]]* %5, i64 0, i64 %16
  %18 = getelementptr inbounds [3 x i32], [3 x i32]* %17, i64 0, i64 0
  %19 = load i32, i32* %6, align 4
  %20 = sext i32 %19 to i64
  %21 = getelementptr inbounds [10 x [3 x i32]], [10 x [3 x i32]]* %5, i64 0, i64 %20
  %22 = getelementptr inbounds [3 x i32], [3 x i32]* %21, i64 0, i64 1
  %23 = load i32, i32* %6, align 4
  %24 = sext i32 %23 to i64
  %25 = getelementptr inbounds [10 x [3 x i32]], [10 x [3 x i32]]* %5, i64 0, i64 %24
  %26 = getelementptr inbounds [3 x i32], [3 x i32]* %25, i64 0, i64 2
  %27 = call i32 (i8*, ...) @__isoc99_scanf(i8* getelementptr inbounds ([7 x i8], [7 x i8]* @.str.1, i64 0, i64 0), i32* %18, i32* %22, i32* %26)
  br label %28

28:                                               ; preds = %14
  %29 = load i32, i32* %6, align 4
  %30 = add nsw i32 %29, 1
  store i32 %30, i32* %6, align 4
  br label %10

31:                                               ; preds = %10
  store i32 1, i32* %6, align 4
  br label %32

32:                                               ; preds = %136, %31
  %33 = load i32, i32* %6, align 4
  %34 = load i32, i32* %2, align 4
  %35 = icmp slt i32 %33, %34
  br i1 %35, label %36, label %139

36:                                               ; preds = %32
  store i32 0, i32* %7, align 4
  br label %37

37:                                               ; preds = %132, %36
  %38 = load i32, i32* %7, align 4
  %39 = load i32, i32* %6, align 4
  %40 = icmp slt i32 %38, %39
  br i1 %40, label %41, label %135

41:                                               ; preds = %37
  %42 = load i32, i32* %6, align 4
  %43 = sext i32 %42 to i64
  %44 = getelementptr inbounds [10 x [3 x i32]], [10 x [3 x i32]]* %5, i64 0, i64 %43
  %45 = getelementptr inbounds [3 x i32], [3 x i32]* %44, i64 0, i64 0
  %46 = load i32, i32* %45, align 4
  %47 = load i32, i32* %7, align 4
  %48 = sext i32 %47 to i64
  %49 = getelementptr inbounds [10 x [3 x i32]], [10 x [3 x i32]]* %5, i64 0, i64 %48
  %50 = getelementptr inbounds [3 x i32], [3 x i32]* %49, i64 0, i64 0
  %51 = load i32, i32* %50, align 4
  %52 = sub nsw i32 %46, %51
  %53 = load i32, i32* %6, align 4
  %54 = sext i32 %53 to i64
  %55 = getelementptr inbounds [10 x [3 x i32]], [10 x [3 x i32]]* %5, i64 0, i64 %54
  %56 = getelementptr inbounds [3 x i32], [3 x i32]* %55, i64 0, i64 0
  %57 = load i32, i32* %56, align 4
  %58 = load i32, i32* %7, align 4
  %59 = sext i32 %58 to i64
  %60 = getelementptr inbounds [10 x [3 x i32]], [10 x [3 x i32]]* %5, i64 0, i64 %59
  %61 = getelementptr inbounds [3 x i32], [3 x i32]* %60, i64 0, i64 0
  %62 = load i32, i32* %61, align 4
  %63 = sub nsw i32 %57, %62
  %64 = mul nsw i32 %52, %63
  %65 = load i32, i32* %6, align 4
  %66 = sext i32 %65 to i64
  %67 = getelementptr inbounds [10 x [3 x i32]], [10 x [3 x i32]]* %5, i64 0, i64 %66
  %68 = getelementptr inbounds [3 x i32], [3 x i32]* %67, i64 0, i64 1
  %69 = load i32, i32* %68, align 4
  %70 = load i32, i32* %7, align 4
  %71 = sext i32 %70 to i64
  %72 = getelementptr inbounds [10 x [3 x i32]], [10 x [3 x i32]]* %5, i64 0, i64 %71
  %73 = getelementptr inbounds [3 x i32], [3 x i32]* %72, i64 0, i64 1
  %74 = load i32, i32* %73, align 4
  %75 = sub nsw i32 %69, %74
  %76 = load i32, i32* %6, align 4
  %77 = sext i32 %76 to i64
  %78 = getelementptr inbounds [10 x [3 x i32]], [10 x [3 x i32]]* %5, i64 0, i64 %77
  %79 = getelementptr inbounds [3 x i32], [3 x i32]* %78, i64 0, i64 1
  %80 = load i32, i32* %79, align 4
  %81 = load i32, i32* %7, align 4
  %82 = sext i32 %81 to i64
  %83 = getelementptr inbounds [10 x [3 x i32]], [10 x [3 x i32]]* %5, i64 0, i64 %82
  %84 = getelementptr inbounds [3 x i32], [3 x i32]* %83, i64 0, i64 1
  %85 = load i32, i32* %84, align 4
  %86 = sub nsw i32 %80, %85
  %87 = mul nsw i32 %75, %86
  %88 = add nsw i32 %64, %87
  %89 = load i32, i32* %6, align 4
  %90 = sext i32 %89 to i64
  %91 = getelementptr inbounds [10 x [3 x i32]], [10 x [3 x i32]]* %5, i64 0, i64 %90
  %92 = getelementptr inbounds [3 x i32], [3 x i32]* %91, i64 0, i64 2
  %93 = load i32, i32* %92, align 4
  %94 = load i32, i32* %7, align 4
  %95 = sext i32 %94 to i64
  %96 = getelementptr inbounds [10 x [3 x i32]], [10 x [3 x i32]]* %5, i64 0, i64 %95
  %97 = getelementptr inbounds [3 x i32], [3 x i32]* %96, i64 0, i64 2
  %98 = load i32, i32* %97, align 4
  %99 = sub nsw i32 %93, %98
  %100 = load i32, i32* %6, align 4
  %101 = sext i32 %100 to i64
  %102 = getelementptr inbounds [10 x [3 x i32]], [10 x [3 x i32]]* %5, i64 0, i64 %101
  %103 = getelementptr inbounds [3 x i32], [3 x i32]* %102, i64 0, i64 2
  %104 = load i32, i32* %103, align 4
  %105 = load i32, i32* %7, align 4
  %106 = sext i32 %105 to i64
  %107 = getelementptr inbounds [10 x [3 x i32]], [10 x [3 x i32]]* %5, i64 0, i64 %106
  %108 = getelementptr inbounds [3 x i32], [3 x i32]* %107, i64 0, i64 2
  %109 = load i32, i32* %108, align 4
  %110 = sub nsw i32 %104, %109
  %111 = mul nsw i32 %99, %110
  %112 = add nsw i32 %88, %111
  %113 = sitofp i32 %112 to double
  %114 = call double @sqrt(double %113) #4
  %115 = fptrunc double %114 to float
  %116 = load i32, i32* %8, align 4
  %117 = sext i32 %116 to i64
  %118 = getelementptr inbounds [45 x %struct.dian], [45 x %struct.dian]* %3, i64 0, i64 %117
  %119 = getelementptr inbounds %struct.dian, %struct.dian* %118, i32 0, i32 0
  store float %115, float* %119, align 4
  %120 = load i32, i32* %7, align 4
  %121 = load i32, i32* %8, align 4
  %122 = sext i32 %121 to i64
  %123 = getelementptr inbounds [45 x %struct.dian], [45 x %struct.dian]* %3, i64 0, i64 %122
  %124 = getelementptr inbounds %struct.dian, %struct.dian* %123, i32 0, i32 1
  store i32 %120, i32* %124, align 4
  %125 = load i32, i32* %6, align 4
  %126 = load i32, i32* %8, align 4
  %127 = sext i32 %126 to i64
  %128 = getelementptr inbounds [45 x %struct.dian], [45 x %struct.dian]* %3, i64 0, i64 %127
  %129 = getelementptr inbounds %struct.dian, %struct.dian* %128, i32 0, i32 2
  store i32 %125, i32* %129, align 4
  %130 = load i32, i32* %8, align 4
  %131 = add nsw i32 %130, 1
  store i32 %131, i32* %8, align 4
  br label %132

132:                                              ; preds = %41
  %133 = load i32, i32* %7, align 4
  %134 = add nsw i32 %133, 1
  store i32 %134, i32* %7, align 4
  br label %37

135:                                              ; preds = %37
  br label %136

136:                                              ; preds = %135
  %137 = load i32, i32* %6, align 4
  %138 = add nsw i32 %137, 1
  store i32 %138, i32* %6, align 4
  br label %32

139:                                              ; preds = %32
  store i32 0, i32* %6, align 4
  br label %140

140:                                              ; preds = %192, %139
  %141 = load i32, i32* %6, align 4
  %142 = load i32, i32* %8, align 4
  %143 = sub nsw i32 %142, 1
  %144 = icmp slt i32 %141, %143
  br i1 %144, label %145, label %195

145:                                              ; preds = %140
  store i32 0, i32* %7, align 4
  br label %146

146:                                              ; preds = %188, %145
  %147 = load i32, i32* %7, align 4
  %148 = load i32, i32* %8, align 4
  %149 = sub nsw i32 %148, 1
  %150 = load i32, i32* %6, align 4
  %151 = sub nsw i32 %149, %150
  %152 = icmp slt i32 %147, %151
  br i1 %152, label %153, label %191

153:                                              ; preds = %146
  %154 = load i32, i32* %7, align 4
  %155 = sext i32 %154 to i64
  %156 = getelementptr inbounds [45 x %struct.dian], [45 x %struct.dian]* %3, i64 0, i64 %155
  %157 = getelementptr inbounds %struct.dian, %struct.dian* %156, i32 0, i32 0
  %158 = load float, float* %157, align 4
  %159 = load i32, i32* %7, align 4
  %160 = add nsw i32 %159, 1
  %161 = sext i32 %160 to i64
  %162 = getelementptr inbounds [45 x %struct.dian], [45 x %struct.dian]* %3, i64 0, i64 %161
  %163 = getelementptr inbounds %struct.dian, %struct.dian* %162, i32 0, i32 0
  %164 = load float, float* %163, align 4
  %165 = fcmp olt float %158, %164
  br i1 %165, label %166, label %187

166:                                              ; preds = %153
  %167 = load i32, i32* %7, align 4
  %168 = sext i32 %167 to i64
  %169 = getelementptr inbounds [45 x %struct.dian], [45 x %struct.dian]* %3, i64 0, i64 %168
  %170 = bitcast %struct.dian* %4 to i8*
  %171 = bitcast %struct.dian* %169 to i8*
  call void @llvm.memcpy.p0i8.p0i8.i64(i8* align 4 %170, i8* align 4 %171, i64 12, i1 false)
  %172 = load i32, i32* %7, align 4
  %173 = sext i32 %172 to i64
  %174 = getelementptr inbounds [45 x %struct.dian], [45 x %struct.dian]* %3, i64 0, i64 %173
  %175 = load i32, i32* %7, align 4
  %176 = add nsw i32 %175, 1
  %177 = sext i32 %176 to i64
  %178 = getelementptr inbounds [45 x %struct.dian], [45 x %struct.dian]* %3, i64 0, i64 %177
  %179 = bitcast %struct.dian* %174 to i8*
  %180 = bitcast %struct.dian* %178 to i8*
  call void @llvm.memcpy.p0i8.p0i8.i64(i8* align 4 %179, i8* align 4 %180, i64 12, i1 false)
  %181 = load i32, i32* %7, align 4
  %182 = add nsw i32 %181, 1
  %183 = sext i32 %182 to i64
  %184 = getelementptr inbounds [45 x %struct.dian], [45 x %struct.dian]* %3, i64 0, i64 %183
  %185 = bitcast %struct.dian* %184 to i8*
  %186 = bitcast %struct.dian* %4 to i8*
  call void @llvm.memcpy.p0i8.p0i8.i64(i8* align 4 %185, i8* align 4 %186, i64 12, i1 false)
  br label %187

187:                                              ; preds = %166, %153
  br label %188

188:                                              ; preds = %187
  %189 = load i32, i32* %7, align 4
  %190 = add nsw i32 %189, 1
  store i32 %190, i32* %7, align 4
  br label %146

191:                                              ; preds = %146
  br label %192

192:                                              ; preds = %191
  %193 = load i32, i32* %6, align 4
  %194 = add nsw i32 %193, 1
  store i32 %194, i32* %6, align 4
  br label %140

195:                                              ; preds = %140
  store i32 0, i32* %6, align 4
  br label %196

196:                                              ; preds = %262, %195
  %197 = load i32, i32* %6, align 4
  %198 = load i32, i32* %8, align 4
  %199 = icmp slt i32 %197, %198
  br i1 %199, label %200, label %265

200:                                              ; preds = %196
  %201 = load i32, i32* %6, align 4
  %202 = sext i32 %201 to i64
  %203 = getelementptr inbounds [45 x %struct.dian], [45 x %struct.dian]* %3, i64 0, i64 %202
  %204 = getelementptr inbounds %struct.dian, %struct.dian* %203, i32 0, i32 1
  %205 = load i32, i32* %204, align 4
  %206 = sext i32 %205 to i64
  %207 = getelementptr inbounds [10 x [3 x i32]], [10 x [3 x i32]]* %5, i64 0, i64 %206
  %208 = getelementptr inbounds [3 x i32], [3 x i32]* %207, i64 0, i64 0
  %209 = load i32, i32* %208, align 4
  %210 = load i32, i32* %6, align 4
  %211 = sext i32 %210 to i64
  %212 = getelementptr inbounds [45 x %struct.dian], [45 x %struct.dian]* %3, i64 0, i64 %211
  %213 = getelementptr inbounds %struct.dian, %struct.dian* %212, i32 0, i32 1
  %214 = load i32, i32* %213, align 4
  %215 = sext i32 %214 to i64
  %216 = getelementptr inbounds [10 x [3 x i32]], [10 x [3 x i32]]* %5, i64 0, i64 %215
  %217 = getelementptr inbounds [3 x i32], [3 x i32]* %216, i64 0, i64 1
  %218 = load i32, i32* %217, align 4
  %219 = load i32, i32* %6, align 4
  %220 = sext i32 %219 to i64
  %221 = getelementptr inbounds [45 x %struct.dian], [45 x %struct.dian]* %3, i64 0, i64 %220
  %222 = getelementptr inbounds %struct.dian, %struct.dian* %221, i32 0, i32 1
  %223 = load i32, i32* %222, align 4
  %224 = sext i32 %223 to i64
  %225 = getelementptr inbounds [10 x [3 x i32]], [10 x [3 x i32]]* %5, i64 0, i64 %224
  %226 = getelementptr inbounds [3 x i32], [3 x i32]* %225, i64 0, i64 2
  %227 = load i32, i32* %226, align 4
  %228 = load i32, i32* %6, align 4
  %229 = sext i32 %228 to i64
  %230 = getelementptr inbounds [45 x %struct.dian], [45 x %struct.dian]* %3, i64 0, i64 %229
  %231 = getelementptr inbounds %struct.dian, %struct.dian* %230, i32 0, i32 2
  %232 = load i32, i32* %231, align 4
  %233 = sext i32 %232 to i64
  %234 = getelementptr inbounds [10 x [3 x i32]], [10 x [3 x i32]]* %5, i64 0, i64 %233
  %235 = getelementptr inbounds [3 x i32], [3 x i32]* %234, i64 0, i64 0
  %236 = load i32, i32* %235, align 4
  %237 = load i32, i32* %6, align 4
  %238 = sext i32 %237 to i64
  %239 = getelementptr inbounds [45 x %struct.dian], [45 x %struct.dian]* %3, i64 0, i64 %238
  %240 = getelementptr inbounds %struct.dian, %struct.dian* %239, i32 0, i32 2
  %241 = load i32, i32* %240, align 4
  %242 = sext i32 %241 to i64
  %243 = getelementptr inbounds [10 x [3 x i32]], [10 x [3 x i32]]* %5, i64 0, i64 %242
  %244 = getelementptr inbounds [3 x i32], [3 x i32]* %243, i64 0, i64 1
  %245 = load i32, i32* %244, align 4
  %246 = load i32, i32* %6, align 4
  %247 = sext i32 %246 to i64
  %248 = getelementptr inbounds [45 x %struct.dian], [45 x %struct.dian]* %3, i64 0, i64 %247
  %249 = getelementptr inbounds %struct.dian, %struct.dian* %248, i32 0, i32 2
  %250 = load i32, i32* %249, align 4
  %251 = sext i32 %250 to i64
  %252 = getelementptr inbounds [10 x [3 x i32]], [10 x [3 x i32]]* %5, i64 0, i64 %251
  %253 = getelementptr inbounds [3 x i32], [3 x i32]* %252, i64 0, i64 2
  %254 = load i32, i32* %253, align 4
  %255 = load i32, i32* %6, align 4
  %256 = sext i32 %255 to i64
  %257 = getelementptr inbounds [45 x %struct.dian], [45 x %struct.dian]* %3, i64 0, i64 %256
  %258 = getelementptr inbounds %struct.dian, %struct.dian* %257, i32 0, i32 0
  %259 = load float, float* %258, align 4
  %260 = fpext float %259 to double
  %261 = call i32 (i8*, ...) @printf(i8* getelementptr inbounds ([28 x i8], [28 x i8]* @.str.2, i64 0, i64 0), i32 %209, i32 %218, i32 %227, i32 %236, i32 %245, i32 %254, double %260)
  br label %262

262:                                              ; preds = %200
  %263 = load i32, i32* %6, align 4
  %264 = add nsw i32 %263, 1
  store i32 %264, i32* %6, align 4
  br label %196

265:                                              ; preds = %196
  ret i32 0
}

declare dso_local i32 @__isoc99_scanf(i8*, ...) #1

; Function Attrs: nounwind
declare dso_local double @sqrt(double) #2

; Function Attrs: argmemonly nounwind willreturn
declare void @llvm.memcpy.p0i8.p0i8.i64(i8* noalias nocapture writeonly, i8* noalias nocapture readonly, i64, i1 immarg) #3

declare dso_local i32 @printf(i8*, ...) #1


!llvm.module.flags = !{!0}
!llvm.ident = !{!1}

!0 = !{i32 1, !"wchar_size", i32 4}
!1 = !{!"clang version 10.0.0-4ubuntu1 "}
